; Function Attrs: mustprogress uwtable
define noalias noundef nonnull ptr @lean_io_prim_handle_lock(ptr noundef readonly captures(none) %0, i8 noundef zeroext %1, ptr noundef readnone captures(none) %2) local_unnamed_addr #0 {
  %4 = getelementptr i8, ptr %0, i64 16
  %.val = load ptr, ptr %4, align 8, !tbaa !39
  %5 = tail call i32 @fileno(ptr noundef %.val) #27
  %.not = icmp eq i8 %1, 0
  %6 = select i1 %.not, i32 1, i32 2
  %7 = tail call i32 @flock(i32 noundef %5, i32 noundef %6) #27
  %.not3 = icmp eq i32 %7, 0
  br i1 %.not3, label %8, label %12

8:                                                ; preds = %3
  tail call void @lean_inc_heartbeat()
  %9 = tail call noalias ptr @mi_malloc_small(i64 noundef 24) #27
  %10 = icmp eq ptr %9, null
  br i1 %10, label %11, label %_ZN4lean15io_result_mk_okEP11lean_object.exit

11:                                               ; preds = %8
  tail call void @lean_internal_panic_out_of_memory() #28
  unreachable

12:                                               ; preds = %3
  %13 = tail call ptr @__errno_location() #30
  %14 = load i32, ptr %13, align 4, !tbaa !44
  %15 = tail call noundef ptr @lean_decode_io_error(i32 noundef %14, ptr noundef null)
  tail call void @lean_inc_heartbeat()
  %16 = tail call noalias ptr @mi_malloc_small(i64 noundef 24) #27
  %17 = icmp eq ptr %16, null
  br i1 %17, label %18, label %_ZN4lean15io_result_mk_okEP11lean_object.exit

18:                                               ; preds = %12
  tail call void @lean_internal_panic_out_of_memory() #28
  unreachable

_ZN4lean15io_result_mk_okEP11lean_object.exit:    ; preds = %12, %8
  %.sink10 = phi ptr [ %9, %8 ], [ %16, %12 ]
  %.sink7 = phi i32 [ 131096, %8 ], [ 16908312, %12 ]
  %.sink = phi ptr [ inttoptr (i64 1 to ptr), %8 ], [ %15, %12 ]
  %19 = getelementptr inbounds nuw i8, ptr %.sink10, i64 4
  store i32 1, ptr %.sink10, align 4, !tbaa !7
  store i32 %.sink7, ptr %19, align 4
  %20 = getelementptr inbounds nuw i8, ptr %.sink10, i64 8
  store ptr %.sink, ptr %20, align 8, !tbaa !3
  %21 = getelementptr inbounds nuw i8, ptr %.sink10, i64 16
  store ptr inttoptr (i64 1 to ptr), ptr %21, align 8, !tbaa !3
  ret ptr %.sink10
}